	.arch armv6-m
	.fpu softvfp
	.eabi_attribute 20, 1
	.eabi_attribute 21, 1
	.eabi_attribute 23, 3
	.eabi_attribute 24, 1
	.eabi_attribute 25, 1
	.eabi_attribute 26, 1
	.eabi_attribute 30, 4
	.eabi_attribute 34, 0
	.eabi_attribute 18, 4
	.file	"main.c"
	.text
.Ltext0:
	.cfi_sections	.debug_frame
	.file 1 "main.c"
	.section	.text.my_memcpy,"ax",%progbits
	.align	1
	.global	my_memcpy
	.syntax unified
	.code	16
	.thumb_func
	.type	my_memcpy, %function
my_memcpy:
.LFB0:
	.loc 1 177 1
	.cfi_startproc
	@ args = 0, pretend = 0, frame = 8
	@ frame_needed = 0, uses_anonymous_args = 0
.LVL0:
	.loc 1 178 9
	.loc 1 179 9
	.loc 1 177 1 is_stmt 0
	push	{r0, r1, r2, r4, r5, r6, r7, lr}
	.cfi_def_cfa_offset 32
	.cfi_offset 0, -32
	.cfi_offset 1, -28
	.cfi_offset 2, -24
	.cfi_offset 4, -20
	.cfi_offset 5, -16
	.cfi_offset 6, -12
	.cfi_offset 7, -8
	.cfi_offset 14, -4
	.loc 1 177 1
	str	r3, [sp, #4]
	.loc 1 179 14
	movs	r3, #0
.LVL1:
	.loc 1 180 56
	ldr	r7, .L4
.LVL2:
.L2:
	.loc 1 179 18 is_stmt 1 discriminator 1
	ldr	r4, [sp, #4]
	cmp	r3, r4
	blt	.L3
	.loc 1 181 1 is_stmt 0
	@ sp needed
	pop	{r0, r1, r2, r4, r5, r6, r7, pc}
.L3:
	.loc 1 180 17 is_stmt 1 discriminator 3
	.loc 1 180 28 is_stmt 0 discriminator 3
	movs	r5, #255
	adds	r4, r2, r3
	.loc 1 180 56 discriminator 3
	ldrb	r6, [r1, r3]
	.loc 1 180 28 discriminator 3
	ands	r4, r5
	.loc 1 180 56 discriminator 3
	ldr	r5, [r7]
	.loc 1 179 26 discriminator 3
	adds	r3, r3, #1
.LVL3:
	.loc 1 180 56 discriminator 3
	ands	r5, r6
	.loc 1 180 45 discriminator 3
	strb	r5, [r0, r4]
	.loc 1 179 26 is_stmt 1 discriminator 3
.LVL4:
	b	.L2
.L5:
	.align	2
.L4:
	.word	.LANCHOR0
	.cfi_endproc
.LFE0:
	.size	my_memcpy, .-my_memcpy
	.section	.text.my_memset,"ax",%progbits
	.align	1
	.global	my_memset
	.syntax unified
	.code	16
	.thumb_func
	.type	my_memset, %function
my_memset:
.LFB1:
	.loc 1 184 1
	.cfi_startproc
	@ args = 0, pretend = 0, frame = 0
	@ frame_needed = 0, uses_anonymous_args = 0
	@ link register save eliminated.
.LVL5:
	.loc 1 185 9
	.loc 1 186 9
	.loc 1 186 15 is_stmt 0
	movs	r3, #0
.LVL6:
.L7:
	.loc 1 186 19 is_stmt 1 discriminator 1
	cmp	r3, r2
	blt	.L8
	.loc 1 188 1 is_stmt 0
	@ sp needed
	bx	lr
.L8:
	.loc 1 187 17 is_stmt 1 discriminator 3
	.loc 1 187 31 is_stmt 0 discriminator 3
	strb	r1, [r0, r3]
	.loc 1 186 27 is_stmt 1 discriminator 3
	adds	r3, r3, #1
.LVL7:
	b	.L7
	.cfi_endproc
.LFE1:
	.size	my_memset, .-my_memset
	.section	.text.reverse,"ax",%progbits
	.align	1
	.global	reverse
	.syntax unified
	.code	16
	.thumb_func
	.type	reverse, %function
reverse:
.LFB2:
	.loc 1 191 1
	.cfi_startproc
	@ args = 0, pretend = 0, frame = 0
	@ frame_needed = 0, uses_anonymous_args = 0
.LVL8:
	push	{r4, lr}
	.cfi_def_cfa_offset 8
	.cfi_offset 4, -8
	.cfi_offset 14, -4
	.loc 1 192 9
	.loc 1 193 9
.L10:
	.loc 1 193 18
	cmp	r0, r1
	blt	.L11
	.loc 1 199 1 is_stmt 0
	@ sp needed
	pop	{r4, pc}
.L11:
	.loc 1 195 15 is_stmt 1
	.loc 1 195 20 is_stmt 0
	ldrb	r3, [r2, r0]
.LVL9:
	.loc 1 195 25 is_stmt 1
	.loc 1 195 33 is_stmt 0
	ldrb	r4, [r2, r1]
	.loc 1 195 30
	strb	r4, [r2, r0]
	.loc 1 195 38 is_stmt 1
	.loc 1 195 43 is_stmt 0
	strb	r3, [r2, r1]
	.loc 1 196 15 is_stmt 1
	.loc 1 196 16 is_stmt 0
	adds	r0, r0, #1
.LVL10:
	.loc 1 197 15 is_stmt 1
	.loc 1 197 16 is_stmt 0
	subs	r1, r1, #1
.LVL11:
	b	.L10
	.cfi_endproc
.LFE2:
	.size	reverse, .-reverse
	.section	.text.memscroll,"ax",%progbits
	.align	1
	.global	memscroll
	.syntax unified
	.code	16
	.thumb_func
	.type	memscroll, %function
memscroll:
.LFB3:
	.loc 1 202 1 is_stmt 1
	.cfi_startproc
	@ args = 0, pretend = 0, frame = 0
	@ frame_needed = 0, uses_anonymous_args = 0
.LVL12:
	.loc 1 204 9
	.loc 1 202 1 is_stmt 0
	push	{r4, r5, r6, lr}
	.cfi_def_cfa_offset 16
	.cfi_offset 4, -16
	.cfi_offset 5, -12
	.cfi_offset 6, -8
	.cfi_offset 14, -4
	.loc 1 202 1
	movs	r4, r0
	.loc 1 207 1
	@ sp needed
	.loc 1 202 1
	movs	r5, r1
	.loc 1 204 9
	movs	r2, r0
	subs	r1, r1, #1
.LVL13:
	movs	r0, #0
.LVL14:
	bl	reverse
.LVL15:
	.loc 1 205 9 is_stmt 1
	movs	r0, r5
	movs	r2, r4
	movs	r1, #255
	bl	reverse
.LVL16:
	.loc 1 206 9
	movs	r2, r4
	movs	r1, #255
	movs	r0, #0
	bl	reverse
.LVL17:
.LVL18:
	.loc 1 207 1 is_stmt 0
	pop	{r4, r5, r6, pc}
	.cfi_endproc
.LFE3:
	.size	memscroll, .-memscroll
	.section	.text.get32bitdff,"ax",%progbits
	.align	1
	.global	get32bitdff
	.syntax unified
	.code	16
	.thumb_func
	.type	get32bitdff, %function
get32bitdff:
.LFB4:
	.loc 1 210 1 is_stmt 1
	.cfi_startproc
	@ args = 0, pretend = 0, frame = 0
	@ frame_needed = 0, uses_anonymous_args = 0
	@ link register save eliminated.
.LVL19:
	.loc 1 211 3
	.loc 1 211 22 is_stmt 0
	ldr	r3, .L14
	.loc 1 212 1
	@ sp needed
	.loc 1 211 22
	ldr	r3, [r3, #4]
	adds	r3, r3, r0
	movs	r2, r3
	adds	r2, r2, #46
	ldrb	r0, [r2]
.LVL20:
	.loc 1 211 51
	adds	r3, r3, #7
	ldrb	r3, [r3, #31]
	.loc 1 211 35
	lsls	r0, r0, #8
	.loc 1 211 39
	adds	r0, r0, r3
	.loc 1 212 1
	bx	lr
.L15:
	.align	2
.L14:
	.word	.LANCHOR0
	.cfi_endproc
.LFE4:
	.size	get32bitdff, .-get32bitdff
	.section	.text.get32bitdf,"ax",%progbits
	.align	1
	.global	get32bitdf
	.syntax unified
	.code	16
	.thumb_func
	.type	get32bitdf, %function
get32bitdf:
.LFB5:
	.loc 1 215 1 is_stmt 1
	.cfi_startproc
	@ args = 0, pretend = 0, frame = 0
	@ frame_needed = 0, uses_anonymous_args = 0
	@ link register save eliminated.
.LVL21:
	.loc 1 216 3
	.loc 1 216 22 is_stmt 0
	ldr	r3, .L17
	.loc 1 217 1
	@ sp needed
	.loc 1 216 22
	ldr	r3, [r3, #4]
	adds	r3, r3, r0
	ldrb	r0, [r3, #30]
.LVL22:
	.loc 1 216 51
	ldrb	r3, [r3, #22]
	.loc 1 216 35
	lsls	r0, r0, #8
	.loc 1 216 39
	adds	r0, r0, r3
	.loc 1 217 1
	bx	lr
.L18:
	.align	2
.L17:
	.word	.LANCHOR0
	.cfi_endproc
.LFE5:
	.size	get32bitdf, .-get32bitdf
	.section	.text.checkwrap,"ax",%progbits
	.align	1
	.global	checkwrap
	.syntax unified
	.code	16
	.thumb_func
	.type	checkwrap, %function
checkwrap:
.LFB6:
	.loc 1 229 1 is_stmt 1
	.cfi_startproc
	@ args = 0, pretend = 0, frame = 0
	@ frame_needed = 0, uses_anonymous_args = 0
	@ link register save eliminated.
.LVL23:
	.loc 1 230 3
	.loc 1 230 13 is_stmt 0
	adds	r3, r0, r1
	.loc 1 230 6
	uxtb	r3, r3
	cmp	r3, r1
	bcs	.L20
	.loc 1 230 29
	movs	r0, #0
.LVL24:
.L20:
	.loc 1 232 1
	@ sp needed
	bx	lr
	.cfi_endproc
.LFE6:
	.size	checkwrap, .-checkwrap
	.section	.text.checkswap,"ax",%progbits
	.align	1
	.global	checkswap
	.syntax unified
	.code	16
	.thumb_func
	.type	checkswap, %function
checkswap:
.LFB7:
	.loc 1 235 1 is_stmt 1
	.cfi_startproc
	@ args = 0, pretend = 0, frame = 0
	@ frame_needed = 0, uses_anonymous_args = 0
.LVL25:
	.loc 1 236 3
	.loc 1 237 3
	.loc 1 239 3
	.loc 1 235 1 is_stmt 0
	push	{r4, lr}
	.cfi_def_cfa_offset 8
	.cfi_offset 4, -8
	.cfi_offset 14, -4
	.loc 1 239 20
	ldr	r3, .L29
	ldr	r2, [r3]
	.loc 1 239 6
	adds	r0, r2, r0
.LVL26:
	ldrb	r3, [r0, #21]
	adds	r0, r0, #2
	ldrb	r4, [r0, #31]
.LVL27:
.LBB6:
.LBB7:
	.loc 1 230 3 is_stmt 1
	.loc 1 230 13 is_stmt 0
	adds	r0, r3, r4
	.loc 1 230 6
	uxtb	r0, r0
	cmp	r4, r0
	bls	.L23
	.loc 1 230 29
	movs	r3, #0
.LVL28:
.L23:
.LBE7:
.LBE6:
	.loc 1 240 3 is_stmt 1
	.loc 1 240 6 is_stmt 0
	adds	r2, r2, r1
	ldrb	r1, [r2, #21]
.LVL29:
	adds	r2, r2, #2
	ldrb	r2, [r2, #31]
.LVL30:
.LBB8:
.LBB9:
	.loc 1 230 3 is_stmt 1
	.loc 1 230 13 is_stmt 0
	adds	r0, r1, r2
	.loc 1 230 6
	uxtb	r0, r0
	cmp	r2, r0
	bls	.L24
	.loc 1 230 29
	movs	r1, #0
.LVL31:
.L24:
.LBE9:
.LBE8:
	.loc 1 242 3 is_stmt 1
	.loc 1 249 19 is_stmt 0
	movs	r0, #1
	.loc 1 242 8
	subs	r3, r3, r1
.LVL32:
	.loc 1 243 3 is_stmt 1
	.loc 1 243 6 is_stmt 0
	cmp	r3, #0
	ble	.L22
	.loc 1 245 5 is_stmt 1
	.loc 1 245 15 is_stmt 0
	subs	r3, r3, #5
.LVL33:
	.loc 1 245 8
	cmp	r3, #0
	ble	.L22
	.loc 1 247 7 is_stmt 1
	.loc 1 247 10 is_stmt 0
	asrs	r0, r2, #31
	lsrs	r1, r3, #31
.LVL34:
	cmp	r2, r3
	adcs	r0, r0, r1
.L22:
	.loc 1 265 1
	@ sp needed
	pop	{r4, pc}
.L30:
	.align	2
.L29:
	.word	.LANCHOR1
	.cfi_endproc
.LFE7:
	.size	checkswap, .-checkswap
	.section	.text.copynybble,"ax",%progbits
	.align	1
	.global	copynybble
	.syntax unified
	.code	16
	.thumb_func
	.type	copynybble, %function
copynybble:
.LFB8:
	.loc 1 268 1 is_stmt 1
	.cfi_startproc
	@ args = 0, pretend = 0, frame = 8
	@ frame_needed = 0, uses_anonymous_args = 0
.LVL35:
	.loc 1 269 5
	.loc 1 270 5
	.loc 1 271 5
	.loc 1 272 5
	.loc 1 268 1 is_stmt 0
	push	{r0, r1, r2, r4, r5, r6, r7, lr}
	.cfi_def_cfa_offset 32
	.cfi_offset 0, -32
	.cfi_offset 1, -28
	.cfi_offset 2, -24
	.cfi_offset 4, -20
	.cfi_offset 5, -16
	.cfi_offset 6, -12
	.cfi_offset 7, -8
	.cfi_offset 14, -4
	.loc 1 272 35
	ldr	r2, .L34
	.loc 1 272 67
	ldr	r7, .L34+4
	.loc 1 272 35
	ldr	r1, [r2, #4]
	.loc 1 268 1
	str	r0, [sp, #4]
	.loc 1 272 35
	movs	r3, r1
	adds	r3, r3, #57
	.loc 1 272 43
	ldrb	r5, [r3]
	.loc 1 272 59
	subs	r3, r3, #1
	ldrb	r6, [r3]
	.loc 1 272 75
	ldr	r3, [r2, #8]
	.loc 1 272 67
	ldr	r4, [r7, #4]
	.loc 1 272 75
	adds	r0, r3, #1
.LVL36:
	str	r0, [r2, #8]
	.loc 1 273 66
	ldr	r2, [r7, #8]
	.loc 1 273 78
	movs	r7, #120
	ldr	r0, [sp, #4]
	.loc 1 272 78
	lsls	r3, r3, #3
	.loc 1 273 78
	lsls	r0, r0, #3
	ands	r0, r7
	.loc 1 273 46
	movs	r7, r1
	adds	r1, r1, #55
	ldrb	r1, [r1]
	adds	r7, r7, #54
	ldrb	r7, [r7]
	lsls	r1, r1, #8
	orrs	r1, r7
	.loc 1 273 66
	adds	r0, r0, r1
	.loc 1 272 43
	lsls	r5, r5, #8
	.loc 1 273 5 is_stmt 1
.LVL37:
	.loc 1 274 5
	.loc 1 274 14
	.loc 1 272 67 is_stmt 0
	adds	r3, r3, r6
	adds	r1, r2, r0
.LVL38:
	adds	r3, r3, r5
	subs	r2, r2, #8
	adds	r4, r4, r3
	adds	r2, r2, r0
.LVL39:
.L32:
	.loc 1 275 7 is_stmt 1 discriminator 3
	.loc 1 275 30 is_stmt 0 discriminator 3
	ldrb	r3, [r1, #7]
	.loc 1 274 14 discriminator 3
	subs	r1, r1, #1
	.loc 1 275 22 discriminator 3
	strb	r3, [r4]
	.loc 1 274 18 is_stmt 1 discriminator 3
	.loc 1 274 14 discriminator 3
	adds	r4, r4, #1
	cmp	r1, r2
	bne	.L32
	.loc 1 276 1 is_stmt 0
	@ sp needed
	pop	{r0, r1, r2, r4, r5, r6, r7, pc}
.L35:
	.align	2
.L34:
	.word	.LANCHOR0
	.word	.LANCHOR1
	.cfi_endproc
.LFE8:
	.size	copynybble, .-copynybble
	.section	.text.on_off_flip,"ax",%progbits
	.align	1
	.global	on_off_flip
	.syntax unified
	.code	16
	.thumb_func
	.type	on_off_flip, %function
on_off_flip:
.LFB9:
	.loc 1 279 1 is_stmt 1
	.cfi_startproc
	@ args = 0, pretend = 0, frame = 0
	@ frame_needed = 0, uses_anonymous_args = 0
	@ link register save eliminated.
.LVL40:
	.loc 1 280 3
	movs	r2, #3
	.loc 1 280 20 is_stmt 0
	ldr	r3, .L41
	ldr	r3, [r3, #12]
	ldrb	r3, [r3]
	ands	r3, r2
	.loc 1 280 3
	cmp	r3, #1
	beq	.L37
	cmp	r3, #2
	beq	.L38
	cmp	r3, #0
	bne	.L36
	.loc 1 283 7 is_stmt 1
	.loc 1 283 14 is_stmt 0
	ldr	r3, .L41+4
	ldr	r2, [r3, #12]
	.loc 1 283 19
	ldrb	r3, [r2, r0]
	orrs	r3, r1
.L40:
	.loc 1 289 19
	strb	r3, [r2, r0]
	.loc 1 290 7 is_stmt 1
.L36:
	.loc 1 294 1 is_stmt 0
	@ sp needed
	bx	lr
.L37:
	.loc 1 286 7 is_stmt 1
	.loc 1 286 14 is_stmt 0
	ldr	r3, .L41+4
	ldr	r2, [r3, #12]
	.loc 1 286 19
	ldrb	r3, [r2, r0]
	bics	r3, r1
	b	.L40
.L38:
	.loc 1 289 7 is_stmt 1
	.loc 1 289 14 is_stmt 0
	ldr	r3, .L41+4
	ldr	r2, [r3, #12]
	.loc 1 289 19
	ldrb	r3, [r2, r0]
	eors	r3, r1
	b	.L40
.L42:
	.align	2
.L41:
	.word	.LANCHOR1
	.word	.LANCHOR0
	.cfi_endproc
.LFE9:
	.size	on_off_flip, .-on_off_flip
	.section	.rodata.str1.1,"aMS",%progbits,1
.LC11:
	.ascii	"\200@ \020\010\004\002\001\001\002\004\010\020 @\200"
	.ascii	"\200@ \020\010\004\002\001\001\002\004\010\020 @\200"
	.ascii	"\000"
	.section	.text.startup.main,"ax",%progbits
	.align	1
	.global	main
	.syntax unified
	.code	16
	.thumb_func
	.type	main, %function
main:
.LFB10:
	.loc 1 298 1 is_stmt 1
	.cfi_startproc
	@ args = 0, pretend = 0, frame = 64
	@ frame_needed = 0, uses_anonymous_args = 0
	.loc 1 300 3
	.loc 1 303 3
	.loc 1 304 3
	.loc 1 305 3
	.loc 1 306 3
.LVL41:
	.loc 1 307 3
	.loc 1 298 1 is_stmt 0
	push	{r4, r5, r6, r7, lr}
	.cfi_def_cfa_offset 20
	.cfi_offset 4, -20
	.cfi_offset 5, -16
	.cfi_offset 6, -12
	.cfi_offset 7, -8
	.cfi_offset 14, -4
	sub	sp, sp, #68
	.cfi_def_cfa_offset 88
	.loc 1 307 23
	movs	r2, #32
	ldr	r1, .L104
	add	r0, sp, #32
	bl	memcpy
.LVL42:
	.loc 1 313 3 is_stmt 1
	.loc 1 313 24 is_stmt 0
	ldr	r4, .L104+4
	.loc 1 313 14
	ldr	r6, .L104+8
	.loc 1 313 46
	ldr	r3, [r4, #16]
	ldrh	r2, [r3]
	.loc 1 313 24
	ldr	r3, [r4, #8]
	adds	r3, r3, r2
	movs	r2, #3
	.loc 1 313 14
	str	r3, [r6, #4]
	.loc 1 316 3 is_stmt 1
	.loc 1 316 17 is_stmt 0
	ldr	r3, [r4, #12]
	str	r3, [sp, #8]
	ldrb	r3, [r3, #1]
	str	r3, [sp, #4]
.LVL43:
	.loc 1 317 3 is_stmt 1
	.loc 1 317 17 is_stmt 0
	ldr	r3, [sp, #8]
	ldrb	r5, [r3, #2]
.LVL44:
	.loc 1 318 3 is_stmt 1
	.loc 1 318 17 is_stmt 0
	ldrb	r7, [r3, #3]
.LVL45:
	.loc 1 320 3 is_stmt 1
	ldrb	r3, [r3]
	bics	r3, r2
	cmp	r3, #20
	bne	.LCB587
	b	.L44	@long jump
.LCB587:
	bls	.LCB589
	b	.L45	@long jump
.LCB589:
	cmp	r3, #12
	bne	.LCB591
	b	.L46	@long jump
.LCB591:
	bls	.LCB593
	b	.L47	@long jump
.LCB593:
	cmp	r3, #4
	bne	.LCB595
	b	.L48	@long jump
.LCB595:
	cmp	r3, #8
	bne	.LCB597
	b	.L58	@long jump
.LCB597:
.L50:
	.loc 1 397 4
	.loc 1 401 3
	.loc 1 405 18 is_stmt 0
	movs	r0, r4
	.loc 1 401 13
	ldr	r3, [sp, #4]
	.loc 1 405 18
	adds	r4, r4, #30
	movs	r2, r3
	movs	r1, r4
	adds	r0, r0, #20
	.loc 1 401 13
	strb	r3, [r6, #16]
	.loc 1 403 3 is_stmt 1
.LVL46:
	.loc 1 405 18 is_stmt 0
	bl	memcpy
.LVL47:
	.loc 1 408 3 is_stmt 1
	.loc 1 408 8 is_stmt 0
	ldr	r3, [sp, #4]
	subs	r7, r3, #1
.LVL48:
	.loc 1 409 3 is_stmt 1
	.loc 1 410 2
	subs	r5, r3, #2
.LVL49:
	adds	r6, r4, r5
	.loc 1 408 8 is_stmt 0
	str	r7, [sp, #8]
.LVL50:
.L66:
	.loc 1 410 14 is_stmt 1
	cmp	r5, #0
	blt	.LCB634
	b	.L70	@long jump
.LCB634:
	.loc 1 437 9 is_stmt 0
	movs	r3, #0
	.loc 1 438 9
	ldr	r4, .L104+4
	.loc 1 437 13
	ldr	r5, .L104+8
.LVL51:
	.loc 1 438 38
	ldr	r0, .L104+12
.L74:
.LVL52:
	.loc 1 437 13 is_stmt 1 discriminator 1
	ldrb	r1, [r5, #16]
	.loc 1 438 9 is_stmt 0 discriminator 1
	ldr	r2, [r4]
	.loc 1 437 13 discriminator 1
	cmp	r1, r3
	ble	.LCB647
	b	.L75	@long jump
.LCB647:
	.loc 1 439 3 is_stmt 1
	.loc 1 439 22 is_stmt 0
	ldr	r3, [sp, #8]
.LVL53:
	.loc 1 442 19
	movs	r0, #3
	.loc 1 439 22
	strb	r3, [r2, #9]
	.loc 1 442 3 is_stmt 1
	.loc 1 442 19 is_stmt 0
	bl	get32bitdf
.LVL54:
	.loc 1 442 3
	ldr	r6, [r4, #4]
	movs	r2, #192
	movs	r1, #0
	.loc 1 442 18
	adds	r0, r6, r0
	.loc 1 442 3
	bl	my_memset
.LVL55:
	.loc 1 445 3 is_stmt 1
	.loc 1 445 19 is_stmt 0
	movs	r0, #1
	bl	get32bitdf
.LVL56:
	.loc 1 445 37
	ldr	r3, [r4]
	.loc 1 445 3
	ldr	r6, [r4, #4]
	.loc 1 445 37
	adds	r3, r3, #55
	.loc 1 445 3
	ldrb	r1, [r3]
	movs	r2, #192
	.loc 1 445 18
	adds	r0, r6, r0
	.loc 1 445 3
	bl	my_memset
.LVL57:
	.loc 1 447 3 is_stmt 1
	.loc 1 447 19 is_stmt 0
	movs	r0, #0
	bl	get32bitdf
.LVL58:
	.loc 1 447 39
	ldr	r3, [r4]
	.loc 1 447 3
	ldr	r6, [r4, #4]
	.loc 1 447 39
	adds	r3, r3, #54
	.loc 1 447 32
	subs	r0, r0, #1
	.loc 1 447 3
	ldrb	r1, [r3]
	movs	r2, #193
	.loc 1 447 32
	adds	r0, r6, r0
	.loc 1 447 3
	bl	my_memset
.LVL59:
	.loc 1 451 3 is_stmt 1
	.loc 1 451 19 is_stmt 0
	movs	r0, #0
	bl	get32bitdf
.LVL60:
	.loc 1 452 28
	ldr	r1, [r4]
	.loc 1 451 3
	ldr	r6, [r4, #4]
	ldrb	r2, [r1, #20]
	.loc 1 452 48
	ldrb	r7, [r1, #30]
	.loc 1 453 17
	adds	r3, r1, #1
	.loc 1 452 48
	ldrb	r1, [r1, #31]
	.loc 1 451 3
	ldrb	r3, [r3, #31]
	.loc 1 452 48
	lsls	r1, r1, #8
	orrs	r1, r7
	ldr	r7, [r4, #8]
	.loc 1 451 18
	adds	r0, r6, r0
	.loc 1 452 48
	adds	r1, r7, r1
	.loc 1 451 3
	bl	my_memcpy
.LVL61:
	.loc 1 456 3 is_stmt 1
	.loc 1 456 19 is_stmt 0
	movs	r0, #2
	bl	get32bitdf
.LVL62:
	.loc 1 457 28
	ldr	r2, [r4]
	.loc 1 456 3
	ldr	r6, [r4, #4]
	.loc 1 457 50
	movs	r1, r2
	.loc 1 458 17
	adds	r3, r2, #1
	.loc 1 457 50
	adds	r2, r2, #57
	ldrb	r2, [r2]
	adds	r1, r1, #56
	ldrb	r1, [r1]
	lsls	r2, r2, #8
	orrs	r2, r1
	ldr	r1, [r4, #8]
	.loc 1 456 3
	ldrb	r3, [r3, #31]
	.loc 1 457 50
	adds	r1, r1, r2
	.loc 1 456 18
	adds	r0, r6, r0
	.loc 1 456 3
	movs	r2, #0
	bl	my_memcpy
.LVL63:
	.loc 1 460 3 is_stmt 1
	.loc 1 460 8 is_stmt 0
	movs	r3, #0
	str	r3, [r5, #24]
	.loc 1 461 3 is_stmt 1
	.loc 1 461 8 is_stmt 0
	str	r3, [r5, #20]
	.loc 1 462 3 is_stmt 1
.LVL64:
.L76:
	.loc 1 462 16
	ldr	r1, .L104+8
	.loc 1 472 15 is_stmt 0
	ldr	r5, .L104+4
	.loc 1 462 16
	ldr	r3, [r1, #20]
	ldr	r2, .L104+16
	.loc 1 472 15
	ldr	r4, [r5]
	.loc 1 462 16
	cmp	r3, r2
	beq	.LCB741
	b	.L82	@long jump
.LCB741:
	.loc 1 516 3 is_stmt 1
	.loc 1 516 8 is_stmt 0
	movs	r3, #1
	.loc 1 518 10
	movs	r4, #51
	.loc 1 516 8
	str	r3, [r1, #8]
	.loc 1 518 3 is_stmt 1
.LVL65:
	.loc 1 518 21
.L83:
	.loc 1 519 5 discriminator 3
	ldr	r3, [r5]
	ldrb	r0, [r3, r4]
	bl	copynybble
.LVL66:
	.loc 1 520 5 discriminator 3
	.loc 1 520 20 is_stmt 0 discriminator 3
	ldr	r3, [r5]
	.loc 1 520 5 discriminator 3
	ldrb	r0, [r3, r4]
	.loc 1 518 33 discriminator 3
	adds	r4, r4, #1
.LVL67:
	.loc 1 520 5 discriminator 3
	lsrs	r0, r0, #4
	bl	copynybble
.LVL68:
	.loc 1 518 33 is_stmt 1 discriminator 3
	.loc 1 518 21 discriminator 3
	cmp	r4, #54
	bne	.L83
	.loc 1 523 3
	.loc 1 524 1 is_stmt 0
	movs	r0, #0
	b	.L43
.LVL69:
.L47:
	.loc 1 320 3
	cmp	r3, #16
	bne	.L50
	.loc 1 348 7 is_stmt 1
	movs	r1, #0
	ldr	r0, [r4]
	ldr	r2, .L104+20
	adds	r0, r0, #58
.L103:
	.loc 1 386 7 is_stmt 0
	bl	my_memset
.LVL70:
	.loc 1 387 7 is_stmt 1
	b	.L43
.L45:
	.loc 1 320 3 is_stmt 0
	cmp	r3, #28
	bne	.LCB798
	b	.L52	@long jump
.LCB798:
	.loc 1 391 16
	str	r5, [sp, #12]
	.loc 1 320 3
	cmp	r3, #32
	bne	.LCB801
	b	.L64	@long jump
.LCB801:
	cmp	r3, #24
	beq	.LCB804
	b	.L50	@long jump
.LCB804:
	.loc 1 380 7 is_stmt 1
	.loc 1 380 21 is_stmt 0
	ldr	r3, [sp, #4]
	.loc 1 380 20
	ldr	r4, [r4, #4]
	.loc 1 380 21
	lsrs	r0, r3, #3
	bl	get32bitdff
.LVL71:
	.loc 1 381 22
	ldr	r1, [sp, #4]
	.loc 1 380 20
	adds	r4, r4, r0
	.loc 1 380 14
	str	r4, [r6, #12]
	.loc 1 381 7 is_stmt 1
	.loc 1 381 22 is_stmt 0
	add	r3, sp, #32
	ldrb	r2, [r4, r5]
	ldrb	r3, [r3, r1]
	ands	r3, r2
	rsbs	r2, r3, #0
	adcs	r3, r3, r2
	ldr	r2, [sp, #8]
	strb	r3, [r2, #3]
	.loc 1 382 7 is_stmt 1
	b	.L43
.L48:
	.loc 1 324 7
	.loc 1 324 21 is_stmt 0
	lsrs	r0, r7, #3
	bl	get32bitdff
.LVL72:
	.loc 1 324 20
	ldr	r4, [r4, #4]
	adds	r4, r4, r0
	.loc 1 324 14
	str	r4, [r6, #12]
	.loc 1 325 7 is_stmt 1
.LVL73:
.L55:
	.loc 1 325 27 discriminator 1
	ldr	r3, [sp, #4]
	cmp	r3, r5
	bge	.L56
.LVL74:
.L43:
	.loc 1 524 1 is_stmt 0
	add	sp, sp, #68
	@ sp needed
	pop	{r4, r5, r6, r7, pc}
.LVL75:
.L56:
	.loc 1 327 9 is_stmt 1 discriminator 3
	add	r3, sp, #32
	movs	r0, r5
	ldrb	r1, [r3, r7]
	bl	on_off_flip
.LVL76:
	.loc 1 325 41 discriminator 3
	adds	r5, r5, #1
.LVL77:
	b	.L55
.LVL78:
.L59:
	.loc 1 335 9 discriminator 3
	.loc 1 335 22 is_stmt 0 discriminator 3
	ldr	r3, [r4, #4]
	.loc 1 335 23 discriminator 3
	asrs	r0, r7, #3
	.loc 1 335 22 discriminator 3
	str	r3, [sp, #8]
	.loc 1 335 23 discriminator 3
	bl	get32bitdff
.LVL79:
	.loc 1 335 22 discriminator 3
	ldr	r3, [sp, #8]
	adds	r0, r3, r0
	.loc 1 336 9 discriminator 3
	add	r3, sp, #32
	ldrb	r1, [r3, r7]
	.loc 1 335 16 discriminator 3
	str	r0, [r6, #12]
	.loc 1 336 9 is_stmt 1 discriminator 3
	movs	r0, r5
	bl	on_off_flip
.LVL80:
	.loc 1 333 41 discriminator 3
	adds	r7, r7, #1
.LVL81:
.L58:
	.loc 1 333 27 discriminator 1
	ldr	r3, [sp, #4]
	cmp	r3, r7
	bge	.L59
	b	.L43
.LVL82:
.L46:
	.loc 1 342 7
	.loc 1 342 21 is_stmt 0
	lsrs	r0, r7, #3
	bl	get32bitdff
.LVL83:
	.loc 1 342 20
	ldr	r4, [r4, #4]
	.loc 1 343 7
	add	r3, sp, #32
	.loc 1 342 20
	adds	r4, r4, r0
	.loc 1 343 7
	ldrb	r1, [r3, r7]
	movs	r0, r5
	.loc 1 342 14
	str	r4, [r6, #12]
	.loc 1 343 7 is_stmt 1
	bl	on_off_flip
.LVL84:
	.loc 1 344 7
	b	.L43
.L44:
	.loc 1 356 7
	.loc 1 356 20 is_stmt 0
	movs	r3, #0
	ldr	r2, [sp, #8]
	strb	r3, [r2, #3]
	.loc 1 357 7 is_stmt 1
.LVL85:
	.loc 1 358 7
	.loc 1 358 18 is_stmt 0
	ldr	r2, [r4]
	adds	r7, r2, r5
.LVL86:
	.loc 1 358 74
	adds	r3, r7, #1
	.loc 1 358 13
	ldrb	r6, [r7, #20]
.LVL87:
	.loc 1 358 74
	ldrb	r3, [r3, #31]
	.loc 1 366 65
	lsls	r5, r5, #1
.LVL88:
	.loc 1 358 69
	adds	r3, r3, r6
	str	r3, [sp, #24]
	.loc 1 366 30
	ldr	r3, [r4, #8]
	mov	ip, r3
	.loc 1 366 53
	movs	r3, r5
	adds	r3, r3, #57
	.loc 1 366 36
	adds	r3, r2, r3
	.loc 1 366 94
	adds	r5, r5, #56
	.loc 1 366 36
	str	r3, [sp, #8]
	.loc 1 366 77
	adds	r3, r2, r5
	str	r3, [sp, #12]
	.loc 1 367 65
	ldr	r3, [sp, #4]
	lsls	r3, r3, #1
	.loc 1 367 53
	movs	r1, r3
	adds	r1, r1, #57
	.loc 1 367 36
	adds	r1, r2, r1
	str	r1, [sp, #16]
	.loc 1 358 13
	movs	r1, r6
	.loc 1 367 94
	adds	r3, r3, #56
	.loc 1 367 77
	adds	r3, r2, r3
	str	r3, [sp, #20]
	.loc 1 360 21
	ldr	r3, [sp, #4]
	adds	r2, r2, r3
	.loc 1 360 82
	adds	r3, r2, #1
	str	r3, [sp, #28]
.LVL89:
.L61:
	.loc 1 358 42 is_stmt 1 discriminator 1
	ldr	r3, [sp, #24]
	cmp	r3, r1
	ble	.L43
	.loc 1 360 9
	.loc 1 360 21 is_stmt 0
	ldrb	r5, [r2, #20]
	.loc 1 360 12
	cmp	r5, r1
	bgt	.L62
	.loc 1 360 82 discriminator 1
	ldr	r3, [sp, #28]
	ldrb	r3, [r3, #31]
	.loc 1 360 77 discriminator 1
	adds	r3, r3, r5
	.loc 1 360 45 discriminator 1
	cmp	r3, r1
	ble	.L62
	.loc 1 363 11 is_stmt 1
	.loc 1 363 21 is_stmt 0
	ldrb	r0, [r7, #10]
	.loc 1 363 48
	ldrb	r3, [r2, #10]
	.loc 1 363 43
	subs	r0, r0, r3
	.loc 1 363 16
	adds	r0, r0, #7
.LVL90:
	.loc 1 364 11 is_stmt 1
	.loc 1 364 14 is_stmt 0
	cmp	r0, #14
	bgt	.L62
	.loc 1 366 13 is_stmt 1
	.loc 1 366 36 is_stmt 0
	ldr	r3, [sp, #8]
	.loc 1 366 77
	ldr	r4, [sp, #12]
	.loc 1 366 36
	ldrb	r3, [r3]
	.loc 1 366 77
	ldrb	r4, [r4]
	.loc 1 366 68
	lsls	r3, r3, #8
	.loc 1 366 72
	adds	r3, r3, r4
	.loc 1 366 109
	adds	r3, r3, r1
	.loc 1 366 111
	subs	r3, r3, r6
	.loc 1 366 30
	add	r3, r3, ip
	ldrb	r3, [r3]
	str	r3, [sp, #4]
	.loc 1 367 36
	ldr	r3, [sp, #16]
	ldrb	r3, [r3]
	.loc 1 367 68
	lsls	r3, r3, #8
	movs	r4, r3
	.loc 1 367 77
	ldr	r3, [sp, #20]
	ldrb	r3, [r3]
	.loc 1 367 72
	adds	r3, r4, r3
	.loc 1 367 109
	adds	r3, r3, r1
	.loc 1 367 111
	subs	r3, r3, r5
	.loc 1 367 30
	add	r3, r3, ip
	ldrb	r3, [r3]
.LVL91:
	.loc 1 369 4 is_stmt 1
	.loc 1 366 140 is_stmt 0
	ldr	r4, [sp, #4]
	.loc 1 367 140
	lsls	r3, r3, r0
.LVL92:
	.loc 1 366 140
	lsls	r4, r4, #7
	.loc 1 369 7
	tst	r3, r4
	beq	.L62
	.loc 1 371 6 is_stmt 1
	.loc 1 371 19 is_stmt 0
	movs	r2, #255
	.loc 1 371 16
	ldr	r3, .L104+4
	ldr	r3, [r3, #12]
	.loc 1 371 19
	strb	r2, [r3, #3]
	.loc 1 372 6 is_stmt 1
	b	.L43
.LVL93:
.L62:
	.loc 1 358 102 discriminator 2
	adds	r1, r1, #1
.LVL94:
	b	.L61
.LVL95:
.L52:
	.loc 1 386 7
	.loc 1 386 23 is_stmt 0
	movs	r0, #0
	bl	get32bitdff
.LVL96:
	.loc 1 386 7
	movs	r2, #128
	ldr	r4, [r4, #4]
	ldr	r1, [sp, #4]
	.loc 1 386 22
	adds	r0, r4, r0
	.loc 1 386 7
	lsls	r2, r2, #3
	b	.L103
.LVL97:
.L65:
	.loc 1 392 9 is_stmt 1 discriminator 3
	.loc 1 392 25 is_stmt 0 discriminator 3
	ldr	r0, [sp, #12]
	bl	get32bitdff
.LVL98:
	.loc 1 392 9 discriminator 3
	ldr	r5, [r4, #4]
	ldr	r1, [sp, #4]
	.loc 1 392 24 discriminator 3
	adds	r0, r5, r0
	.loc 1 392 9 discriminator 3
	bl	memscroll
.LVL99:
	.loc 1 391 52 is_stmt 1 discriminator 3
	ldr	r3, [sp, #12]
	adds	r3, r3, #1
	str	r3, [sp, #12]
.LVL100:
.L64:
	.loc 1 391 34 discriminator 1
	ldr	r3, [sp, #12]
	cmp	r7, r3
	bgt	.L65
	b	.L43
.LVL101:
.L70:
	.loc 1 412 3
	.loc 1 412 30 is_stmt 0
	ldrb	r3, [r6, #1]
	str	r3, [sp, #12]
	.loc 1 412 50
	ldrb	r3, [r6]
	.loc 1 412 10
	ldr	r0, [sp, #12]
	movs	r1, r3
	.loc 1 412 50
	str	r3, [sp, #16]
	.loc 1 412 10
	bl	checkswap
.LVL102:
	.loc 1 412 3
	cmp	r0, #1
	beq	.L67
	cmp	r0, #2
	beq	.L68
	cmp	r0, #0
	bne	.L70
.L69:
	subs	r6, r6, #1
	subs	r5, r5, #1
	b	.L66
.L67:
	.loc 1 415 7 is_stmt 1
	.loc 1 418 10 is_stmt 0
	movs	r2, r5
	movs	r1, #0
	.loc 1 415 12
	ldr	r3, [sp, #8]
	subs	r3, r3, #1
	str	r3, [sp, #8]
.LVL103:
	.loc 1 417 4 is_stmt 1
	.loc 1 417 10 is_stmt 0
	ldr	r3, .L104+8
.LVL104:
	str	r5, [r3, #20]
	.loc 1 418 4 is_stmt 1
	ldr	r3, .L104+12
	adds	r3, r3, r5
.L71:
	.loc 1 418 16
	cmp	r7, r2
	bne	.L72
	cmp	r1, #0
	beq	.L68
	ldr	r2, [sp, #4]
	ldr	r3, .L104+8
	subs	r2, r2, #1
	str	r2, [r3, #20]
.LVL105:
.L68:
	.loc 1 432 3
	.loc 1 433 3
	.loc 1 433 22 is_stmt 0
	ldr	r2, [sp, #16]
	adds	r3, r4, r5
	strb	r2, [r3, #1]
	.loc 1 434 3 is_stmt 1
	.loc 1 434 20 is_stmt 0
	ldr	r3, [sp, #12]
	strb	r3, [r6]
	.loc 1 435 3 is_stmt 1
	b	.L69
.LVL106:
.L72:
	.loc 1 420 3
	.loc 1 420 20 is_stmt 0
	ldrb	r1, [r3, #1]
	adds	r2, r2, #1
	strb	r1, [r3]
	.loc 1 421 3 is_stmt 1
	.loc 1 420 20 is_stmt 0
	movs	r1, #1
	adds	r3, r3, #1
	b	.L71
.LVL107:
.L75:
	.loc 1 438 5 is_stmt 1 discriminator 3
	.loc 1 438 38 is_stmt 0 discriminator 3
	ldrb	r1, [r3, r0]
	.loc 1 438 27 discriminator 3
	strb	r1, [r2, r3]
	.loc 1 437 26 is_stmt 1 discriminator 3
	adds	r3, r3, #1
.LVL108:
	b	.L74
.L105:
	.align	2
.L104:
	.word	.LC11
	.word	.LANCHOR1
	.word	.LANCHOR0
	.word	.LANCHOR1+20
	.word	511
	.word	3614
.LVL109:
.L82:
	.loc 1 464 5
	.loc 1 464 24 is_stmt 0
	ldr	r3, [r1, #24]
	adds	r3, r5, r3
	.loc 1 464 13
	ldrb	r5, [r3, #20]
.LVL110:
	.loc 1 471 7 is_stmt 1
	.loc 1 471 12 is_stmt 0
	movs	r3, #255
	str	r3, [r1]
	.loc 1 472 7 is_stmt 1
	.loc 1 472 15 is_stmt 0
	adds	r3, r4, r5
	movs	r0, r3
	adds	r0, r0, #42
	ldrb	r2, [r0]
	.loc 1 472 10
	ldrb	r0, [r0]
	sxtb	r0, r0
	cmp	r0, #0
	bge	.L77
	.loc 1 474 9 is_stmt 1
	.loc 1 474 17 is_stmt 0
	ldrb	r6, [r3, #11]
	.loc 1 474 12
	cmp	r6, #152
	bls	.L77
	.loc 1 477 12 is_stmt 1
	.loc 1 477 54 is_stmt 0
	movs	r7, #8
	asrs	r3, r2, #3
	ands	r3, r7
	.loc 1 477 86
	lsls	r2, r2, #1
	adds	r7, r7, r7
	ands	r2, r7
	.loc 1 477 25
	ldr	r0, .L106
	.loc 1 477 58
	orrs	r3, r2
	.loc 1 477 115
	subs	r6, r6, #153
	.loc 1 477 90
	orrs	r3, r6
	.loc 1 477 25
	ldrb	r3, [r0, r3]
	str	r3, [r1]
.L77:
	.loc 1 481 7 is_stmt 1
	.loc 1 481 23 is_stmt 0
	movs	r0, #3
	bl	get32bitdf
.LVL111:
	.loc 1 482 56
	lsls	r3, r5, #1
	str	r3, [sp, #12]
	.loc 1 483 28
	movs	r3, r5
	adds	r3, r3, #21
	str	r3, [sp, #4]
	.loc 1 482 30
	ldr	r1, [sp, #12]
	.loc 1 481 7
	ldr	r2, [sp, #4]
	.loc 1 484 33
	adds	r5, r5, #33
.LVL112:
	.loc 1 481 7
	ldrb	r3, [r4, r5]
	ldrb	r2, [r4, r2]
	.loc 1 482 30
	adds	r4, r4, r1
	movs	r1, r4
	adds	r1, r1, #59
	.loc 1 482 59
	ldrb	r1, [r1]
	.loc 1 482 68
	adds	r4, r4, #58
	.loc 1 481 7
	ldr	r7, .L106+4
	.loc 1 482 68
	ldrb	r4, [r4]
	.loc 1 482 59
	lsls	r1, r1, #8
	.loc 1 481 7
	ldr	r6, [r7, #4]
	.loc 1 482 63
	adds	r1, r1, r4
	ldr	r4, [r7, #8]
	.loc 1 481 22
	adds	r0, r6, r0
	.loc 1 482 63
	adds	r1, r4, r1
	.loc 1 481 7
	bl	my_memcpy
.LVL113:
	.loc 1 485 7 is_stmt 1
	.loc 1 485 12 is_stmt 0
	movs	r3, #255
	ldr	r4, .L106+8
	.loc 1 487 23
	movs	r0, #1
	.loc 1 485 12
	str	r3, [r4]
	.loc 1 487 7 is_stmt 1
	ldr	r3, [r7, #4]
	str	r3, [sp, #16]
	.loc 1 487 23 is_stmt 0
	bl	get32bitdf
.LVL114:
	.loc 1 488 30
	ldr	r6, [r7]
	ldr	r1, [sp, #12]
	.loc 1 487 7
	ldr	r2, [sp, #4]
	ldrb	r3, [r6, r5]
	ldrb	r2, [r6, r2]
	.loc 1 488 30
	adds	r6, r6, r1
	movs	r1, r6
	adds	r1, r1, #77
	.loc 1 488 57
	ldrb	r1, [r1]
	.loc 1 488 66
	adds	r6, r6, #76
	ldrb	r6, [r6]
	.loc 1 488 57
	lsls	r1, r1, #8
	.loc 1 488 61
	adds	r6, r1, r6
	ldr	r1, [r7, #8]
	adds	r1, r1, r6
	.loc 1 487 22
	ldr	r6, [sp, #16]
	adds	r0, r6, r0
	.loc 1 487 7
	bl	my_memcpy
.LVL115:
	.loc 1 492 5 is_stmt 1
	.loc 1 492 10 is_stmt 0
	ldr	r3, [r4, #20]
	.loc 1 493 65
	ldr	r2, [sp, #4]
	.loc 1 492 10
	str	r3, [r4, #8]
	.loc 1 493 5 is_stmt 1
	.loc 1 493 16 is_stmt 0
	ldr	r3, [r7]
	.loc 1 493 65
	ldrb	r1, [r3, r5]
	ldrb	r2, [r3, r2]
	.loc 1 494 30
	ldr	r5, [r4, #24]
.LVL116:
	.loc 1 493 65
	adds	r2, r2, r1
	uxtb	r2, r2
	str	r2, [r4, #20]
	.loc 1 494 5 is_stmt 1
	.loc 1 494 24 is_stmt 0
	adds	r2, r7, r5
	.loc 1 494 13
	ldrb	r6, [r2, #21]
.LVL117:
	.loc 1 495 5 is_stmt 1
	.loc 1 495 8 is_stmt 0
	ldr	r2, [sp, #8]
	cmp	r2, r5
	beq	.L78
	.loc 1 495 34 discriminator 1
	adds	r3, r3, r6
	.loc 1 495 26 discriminator 1
	ldrb	r3, [r3, #21]
	cmp	r3, #175
	bls	.L79
.L78:
	.loc 1 497 7 is_stmt 1
	.loc 1 497 12 is_stmt 0
	ldr	r3, .L106+12
	str	r3, [r4, #20]
	.loc 1 498 7 is_stmt 1
	.loc 1 498 12 is_stmt 0
	movs	r3, #0
	str	r3, [r4, #8]
.L79:
	.loc 1 504 6 is_stmt 1
	.loc 1 504 11 is_stmt 0
	ldr	r3, [r7, #4]
	.loc 1 504 12
	movs	r0, #4
	.loc 1 504 11
	str	r3, [sp, #4]
	.loc 1 504 12
	bl	get32bitdf
.LVL118:
	.loc 1 504 11
	ldr	r3, [sp, #4]
	.loc 1 504 25
	adds	r0, r5, r0
	.loc 1 504 39
	ldr	r2, [r4, #8]
	.loc 1 504 11
	adds	r0, r3, r0
	.loc 1 504 39
	ldr	r3, [r4, #20]
	.loc 1 504 52
	asrs	r5, r5, #1
	.loc 1 504 39
	subs	r3, r3, r2
	.loc 1 504 45
	subs	r3, r3, r5
	.loc 1 504 57
	asrs	r3, r3, #1
	.loc 1 504 32
	uxtb	r3, r3
	strb	r3, [r0]
	.loc 1 506 5 is_stmt 1
	.loc 1 506 22 is_stmt 0
	movs	r3, r6
	adds	r3, r3, #11
	str	r3, [sp, #4]
	.loc 1 506 13
	ldr	r2, [sp, #4]
	ldr	r3, [r7]
	adds	r1, r3, r2
	ldrb	r3, [r3, r2]
	.loc 1 506 8
	cmp	r3, #159
	bls	.L80
	.loc 1 507 7 is_stmt 1
	.loc 1 507 30 is_stmt 0
	movs	r2, #96
	cmp	r3, #208
	bhi	.L81
	adds	r2, r2, #64
.L81:
	.loc 1 507 30 discriminator 4
	subs	r3, r3, r2
	strb	r3, [r1]
.L80:
	.loc 1 508 5 is_stmt 1
	.loc 1 508 37 is_stmt 0
	ldr	r3, [r7]
	.loc 1 508 11
	movs	r0, #5
	.loc 1 508 45
	adds	r6, r6, #42
.LVL119:
	.loc 1 508 37
	adds	r6, r3, r6
	.loc 1 508 11
	bl	get32bitdff
.LVL120:
	.loc 1 508 25
	ldr	r4, .L106+8
	.loc 1 508 10
	ldr	r5, [r7, #4]
	.loc 1 508 25
	ldr	r3, [r4, #24]
	.loc 1 509 50
	ldr	r2, [sp, #4]
	.loc 1 508 25
	adds	r0, r0, r3
	.loc 1 508 37
	ldrb	r3, [r6]
	.loc 1 508 10
	adds	r5, r5, r0
	.loc 1 508 32
	strb	r3, [r5]
	.loc 1 509 5 is_stmt 1
	.loc 1 509 50 is_stmt 0
	ldr	r3, [r7]
	.loc 1 509 44
	ldr	r6, [r4, #4]
	.loc 1 509 50
	ldrb	r3, [r3, r2]
	.loc 1 509 11
	movs	r0, #7
	.loc 1 509 44
	adds	r3, r3, #66
	adds	r6, r6, r3
	.loc 1 509 11
	bl	get32bitdff
.LVL121:
	.loc 1 509 25
	ldr	r3, [r4, #24]
	.loc 1 509 10
	ldr	r5, [r7, #4]
	.loc 1 509 25
	adds	r0, r0, r3
	.loc 1 509 44
	ldrb	r3, [r6]
	.loc 1 509 10
	adds	r5, r5, r0
	.loc 1 509 32
	strb	r3, [r5]
	.loc 1 511 5 is_stmt 1
	.loc 1 511 55 is_stmt 0
	ldr	r3, [r7]
	ldr	r2, [sp, #4]
	.loc 1 511 50
	ldr	r5, .L106+16
	.loc 1 511 55
	ldrb	r3, [r3, r2]
	.loc 1 511 43
	ldr	r2, [r4, #4]
	.loc 1 511 50
	ldrb	r3, [r3, r5]
	.loc 1 511 11
	movs	r0, #5
	.loc 1 511 43
	adds	r3, r2, r3
	str	r3, [sp, #12]
	.loc 1 511 11
	bl	get32bitdf
.LVL122:
	.loc 1 511 24
	ldr	r3, [r4, #24]
	.loc 1 511 10
	ldr	r6, [r7, #4]
	.loc 1 511 24
	adds	r0, r0, r3
	.loc 1 511 43
	ldr	r3, [sp, #12]
	.loc 1 511 10
	adds	r6, r6, r0
	.loc 1 511 43
	ldrb	r3, [r3]
	.loc 1 513 55
	ldr	r2, [sp, #4]
	.loc 1 511 31
	strb	r3, [r6]
	.loc 1 513 5 is_stmt 1
	.loc 1 513 55 is_stmt 0
	ldr	r3, [r7]
	.loc 1 513 11
	movs	r0, #6
	.loc 1 513 55
	ldrb	r3, [r3, r2]
	.loc 1 513 10
	ldr	r6, [r7, #4]
	.loc 1 513 50
	ldrb	r3, [r3, r5]
	.loc 1 513 43
	ldr	r5, [r4, #4]
	adds	r3, r3, #11
	adds	r5, r5, r3
	.loc 1 513 11
	bl	get32bitdf
.LVL123:
	.loc 1 513 24
	ldr	r3, [r4, #24]
	adds	r0, r0, r3
	.loc 1 513 43
	ldrb	r3, [r5]
	.loc 1 513 10
	adds	r6, r6, r0
	.loc 1 513 31
	strb	r3, [r6]
	.loc 1 514 5 is_stmt 1
	.loc 1 514 10 is_stmt 0
	ldr	r3, [r4, #24]
	adds	r3, r3, #1
	str	r3, [r4, #24]
	b	.L76
.L107:
	.align	2
.L106:
	.word	.LANCHOR2
	.word	.LANCHOR1
	.word	.LANCHOR0
	.word	511
	.word	536878080
	.cfi_endproc
.LFE10:
	.size	main, .-main
	.global	maxsprites
	.global	myGfxIndex
	.global	spritesort
	.global	maskdata
	.global	mask
	.global	temp5
	.global	temp4
	.global	count
	.global	pfpixel
	.global	fetcheraddr
	.global	RIOT
	.global	fetcher_address_table
	.global	C_function
	.global	queue_int
	.global	flashdata
	.global	queue
	.section	.rodata
	.set	.LANCHOR2,. + 0
	.type	maskdata, %object
	.size	maskdata, 32
maskdata:
	.ascii	"\000\001\003\007\017\037?\177\376\374\370\360\340\300"
	.ascii	"\200\000\000\200\300\340\360\370\374\376\177?\037\017"
	.ascii	"\007\003\001\000"
	.data
	.align	2
	.set	.LANCHOR1,. + 0
	.type	RIOT, %object
	.size	RIOT, 4
RIOT:
	.word	536939944
	.type	queue, %object
	.size	queue, 4
queue:
	.word	536939520
	.type	flashdata, %object
	.size	flashdata, 4
flashdata:
	.word	536873984
	.type	C_function, %object
	.size	C_function, 4
C_function:
	.word	536939940
	.type	fetcher_address_table, %object
	.size	fetcher_address_table, 4
fetcher_address_table:
	.word	536898976
	.type	myGfxIndex, %object
	.size	myGfxIndex, 10
myGfxIndex:
	.ascii	"\000\001\002\003\004\005\006\007\010\000"
	.type	spritesort, %object
	.size	spritesort, 10
spritesort:
	.ascii	"\000\001\002\003\004\005\006\007\010\000"
	.type	queue_int, %object
	.size	queue_int, 4
queue_int:
	.word	536939520
	.bss
	.align	2
	.set	.LANCHOR0,. + 0
	.type	mask, %object
	.size	mask, 4
mask:
	.space	4
	.type	fetcheraddr, %object
	.size	fetcheraddr, 4
fetcheraddr:
	.space	4
	.type	temp5, %object
	.size	temp5, 4
temp5:
	.space	4
	.type	pfpixel, %object
	.size	pfpixel, 4
pfpixel:
	.space	4
	.type	maxsprites, %object
	.size	maxsprites, 1
maxsprites:
	.space	1
	.space	3
	.type	temp4, %object
	.size	temp4, 4
temp4:
	.space	4
	.type	count, %object
	.size	count, 4
count:
	.space	4
	.text
.Letext0:
	.file 2 "src/custom.h"